Certificate:
    Data:
        Version: 3 (0x2)
        Serial Number: 1 (0x1)
        Signature Algorithm: sha256WithRSAEncryption
        Issuer: C=DE, O=BUW APEL Test, CN=APEL Test RootCA
        Validity
            Not Before: Apr 24 10:02:13 2023 GMT
            Not After : Apr 21 10:02:13 2033 GMT
        Subject: C=DE, O=BUW APEL Test, CN=APEL Test InterCA
        Subject Public Key Info:
            Public Key Algorithm: rsaEncryption
                Public-Key: (2048 bit)
                Modulus:
                    00:96:00:80:dd:21:66:e5:f9:46:03:d5:24:22:94:
                    01:cb:cf:e5:32:8a:99:20:b9:8b:03:c7:e1:05:26:
                    74:1d:38:a3:08:89:d5:e7:59:37:99:d9:75:9c:6e:
                    e5:ce:fc:9e:07:df:4d:b2:d6:0f:5f:dc:66:35:08:
                    c0:41:9e:28:f7:3a:16:4d:c7:07:a0:02:a1:08:19:
                    3c:9b:f9:bf:2d:98:1f:f4:c9:e8:be:b4:dc:0a:09:
                    7a:7c:02:f4:c8:f1:90:cd:68:5f:0f:1d:12:56:47:
                    9e:ae:b0:8e:3f:68:3d:ac:d6:0e:25:39:2e:dc:7c:
                    f3:f7:5c:58:c3:4a:42:a6:f3:91:73:1b:7d:5f:b5:
                    8a:b6:8e:10:18:c2:c9:a4:a5:e9:27:4e:d1:d6:de:
                    98:98:17:49:59:21:d2:22:8b:7a:e8:7f:0b:93:41:
                    ff:b3:5c:0d:01:67:d2:5d:96:54:3c:e9:a3:07:a5:
                    39:75:6f:7e:89:16:34:0a:b4:e0:1c:76:eb:52:0f:
                    ac:76:1c:93:dc:69:f3:2e:43:08:55:93:03:3c:29:
                    84:a8:55:08:c8:95:aa:50:b9:8a:ef:f1:a9:0f:5f:
                    ff:48:33:d0:f2:83:52:5a:78:a1:ac:99:fb:be:02:
                    8e:fc:be:db:cb:e6:62:85:4f:3d:c7:54:3a:5b:f5:
                    e8:39
                Exponent: 65537 (0x10001)
        X509v3 extensions:
            X509v3 Subject Key Identifier: 
                D2:DA:E2:85:0E:EF:04:EF:A8:AE:42:6D:EC:D5:D4:2B:05:BC:74:47
            X509v3 Authority Key Identifier: 
                keyid:17:C4:E8:93:F8:63:B0:39:6D:C3:85:61:B8:88:8E:38:99:81:CA:8C
                DirName:/C=DE/O=BUW APEL Test/CN=APEL Test RootCA
                serial:21:B6:96:C7:F1:4B:01:C6:A0:EF:3B:81:8D:A6:AB:96:1A:B5:7C:17
            X509v3 Basic Constraints: critical
                CA:TRUE
            X509v3 Key Usage: critical
                Digital Signature, Certificate Sign, CRL Sign
    Signature Algorithm: sha256WithRSAEncryption
    Signature Value:
        c4:56:48:a5:47:bf:2b:4c:ef:91:8a:fe:7e:41:a6:83:40:5d:
        aa:70:83:b8:cd:f9:36:86:4b:4a:b9:54:9b:86:0c:88:eb:15:
        1a:94:fc:18:1d:37:7f:8d:76:65:71:43:c6:0d:6a:09:9a:f0:
        94:31:9d:98:7d:fa:f8:75:03:a4:b7:44:54:3c:b2:df:82:87:
        2c:90:57:88:b1:41:96:69:2d:eb:48:9d:1f:7d:15:56:80:fa:
        d8:52:bf:e0:bb:ea:dd:db:c9:3d:8c:94:cd:dc:da:b9:e6:76:
        64:0e:bb:6e:69:b6:ea:27:a8:1f:ad:71:30:ef:9c:9e:c1:79:
        65:c3:d0:63:01:a9:52:0c:dd:4a:e2:45:eb:46:cd:99:c9:ef:
        8e:86:f0:20:b7:48:de:36:aa:74:33:43:b7:d1:ab:34:f3:ca:
        a1:c2:04:ba:d1:e6:ae:1b:7b:71:2f:99:57:16:69:75:94:93:
        01:6c:3b:1d:48:5e:34:20:79:e5:10:6c:09:36:09:76:be:49:
        d8:25:03:cf:f0:39:e5:99:e5:42:85:b0:9c:95:3d:0b:16:5b:
        8e:16:53:1b:8e:0d:7e:b6:f5:67:b1:f1:ce:59:65:53:43:66:
        47:4e:4d:ae:9f:b2:e1:b1:78:1a:29:a2:fc:82:c3:61:5a:21:
        f2:f5:5b:dd:04:7c:6c:32:25:00:b4:0d:3b:59:00:3e:e6:a0:
        80:70:08:49:71:6f:3d:75:74:fb:b0:cd:76:d1:d5:db:b5:2c:
        08:27:cc:c1:58:c0:72:0a:cb:ec:19:7d:21:de:b0:69:b9:4c:
        25:11:c9:a4:7a:26:60:a0:6b:1a:40:be:33:c2:a8:1a:2d:72:
        ce:9b:e8:ac:f2:77:eb:bc:4b:89:8f:d6:a4:b5:3e:71:c9:a1:
        ed:6b:48:f6:75:a8:29:e8:87:ea:17:c4:5c:0f:e7:a8:6d:75:
        45:e4:e6:fe:31:fb:68:c0:ef:a6:23:46:e4:9f:87:67:6d:7a:
        af:87:d9:e5:ff:77:fc:ab:e7:eb:b2:d8:fe:94:0e:94:9a:9e:
        50:9b:b9:ba:04:e3:e7:7f:97:41:3b:d3:5e:48:65:96:ce:95:
        28:41:f2:87:44:5b:36:9d:6e:37:62:c9:23:72:14:c5:42:2d:
        4b:6e:08:cf:8d:91:c7:93:51:50:21:76:34:7d:df:3d:62:24:
        cb:8a:b6:68:68:ac:02:cf:b8:6a:24:7e:b3:c7:43:d7:ef:e3:
        ab:b3:53:f7:82:69:1f:59:40:38:7f:60:9d:25:43:32:fc:7c:
        9d:d3:a0:c1:de:e2:a8:d2:95:8f:00:51:e3:05:3d:a1:d4:36:
        10:fb:04:93:53:7d:0b:1a
-----BEGIN CERTIFICATE-----
MIIEvTCCAqWgAwIBAgIBATANBgkqhkiG9w0BAQsFADBAMQswCQYDVQQGEwJERTEW
MBQGA1UECgwNQlVXIEFQRUwgVGVzdDEZMBcGA1UEAwwQQVBFTCBUZXN0IFJvb3RD
QTAeFw0yMzA0MjQxMDAyMTNaFw0zMzA0MjExMDAyMTNaMEExCzAJBgNVBAYTAkRF
MRYwFAYDVQQKDA1CVVcgQVBFTCBUZXN0MRowGAYDVQQDDBFBUEVMIFRlc3QgSW50
ZXJDQTCCASIwDQYJKoZIhvcNAQEBBQADggEPADCCAQoCggEBAJYAgN0hZuX5RgPV
JCKUAcvP5TKKmSC5iwPH4QUmdB04owiJ1edZN5nZdZxu5c78ngffTbLWD1/cZjUI
wEGeKPc6Fk3HB6ACoQgZPJv5vy2YH/TJ6L603AoJenwC9MjxkM1oXw8dElZHnq6w
jj9oPazWDiU5Ltx88/dcWMNKQqbzkXMbfV+1iraOEBjCyaSl6SdO0dbemJgXSVkh
0iKLeuh/C5NB/7NcDQFn0l2WVDzpowelOXVvfokWNAq04Bx261IPrHYck9xp8y5D
CFWTAzwphKhVCMiVqlC5iu/xqQ9f/0gz0PKDUlp4oayZ+74Cjvy+28vmYoVPPcdU
Olv16DkCAwEAAaOBwDCBvTAdBgNVHQ4EFgQU0trihQ7vBO+orkJt7NXUKwW8dEcw
ewYDVR0jBHQwcoAUF8Tok/hjsDltw4VhuIiOOJmByoyhRKRCMEAxCzAJBgNVBAYT
AkRFMRYwFAYDVQQKDA1CVVcgQVBFTCBUZXN0MRkwFwYDVQQDDBBBUEVMIFRlc3Qg
Um9vdENBghQhtpbH8UsBxqDvO4GNpquWGrV8FzAPBgNVHRMBAf8EBTADAQH/MA4G
A1UdDwEB/wQEAwIBhjANBgkqhkiG9w0BAQsFAAOCAgEAxFZIpUe/K0zvkYr+fkGm
g0BdqnCDuM35NoZLSrlUm4YMiOsVGpT8GB03f412ZXFDxg1qCZrwlDGdmH36+HUD
pLdEVDyy34KHLJBXiLFBlmkt60idH30VVoD62FK/4Lvq3dvJPYyUzdzaueZ2ZA67
bmm26ieoH61xMO+cnsF5ZcPQYwGpUgzdSuJF60bNmcnvjobwILdI3jaqdDNDt9Gr
NPPKocIEutHmrht7cS+ZVxZpdZSTAWw7HUheNCB55RBsCTYJdr5J2CUDz/A55Znl
QoWwnJU9CxZbjhZTG44Nfrb1Z7HxzlllU0NmR05Nrp+y4bF4Gimi/ILDYVoh8vVb
3QR8bDIlALQNO1kAPuaggHAISXFvPXV0+7DNdtHV27UsCCfMwVjAcgrL7Bl9Id6w
ablMJRHJpHomYKBrGkC+M8KoGi1yzpvorPJ367xLiY/WpLU+ccmh7WtI9nWoKeiH
6hfEXA/nqG11ReTm/jH7aMDvpiNG5J+HZ216r4fZ5f93/Kvn67LY/pQOlJqeUJu5
ugTj53+XQTvTXkhlls6VKEHyh0RbNp1uN2LJI3IUxUItS24Iz42Rx5NRUCF2NH3f
PWIky4q2aGisAs+4aiR+s8dD1+/jq7NT94JpH1lAOH9gnSVDMvx8ndOgwd7iqNKV
jwBR4wU9odQ2EPsEk1N9Cxo=
-----END CERTIFICATE-----
