Certificate:
    Data:
        Version: 3 (0x2)
        Serial Number: 6 (0x6)
        Signature Algorithm: sha256WithRSAEncryption
        Issuer: C=DE, O=BUW APEL Test, CN=APEL Test InterCA
        Validity
            Not Before: Jul 16 16:54:14 2024 GMT
            Not After : Jul 16 16:54:14 2025 GMT
        Subject: C=DE, O=BUW APEL Test, CN=APEL Test Client
        Subject Public Key Info:
            Public Key Algorithm: rsaEncryption
                Public-Key: (2048 bit)
                Modulus:
                    00:c3:c1:4f:22:ee:ed:4d:bf:38:5e:98:e5:3f:a4:
                    46:14:1d:d0:5a:69:94:61:c0:ad:25:b2:bc:5d:d4:
                    c3:10:cf:04:89:8b:4b:6d:81:4b:88:53:c4:68:4b:
                    5a:6c:fa:74:f9:d7:cf:4a:ba:c8:2a:60:02:21:e8:
                    3d:15:88:2b:b6:c8:ed:82:7e:57:16:76:87:42:09:
                    07:db:22:fc:bb:59:14:ea:2f:cb:59:48:00:28:e1:
                    eb:7e:9b:52:9d:ce:b1:32:a1:22:92:15:a8:da:a6:
                    2e:e8:ed:6c:ff:cb:1c:5e:32:16:89:7e:3e:2d:ec:
                    40:f8:fe:a0:c2:21:b2:bb:e6:36:69:51:3c:d9:b5:
                    7b:b0:35:91:b6:2a:32:5f:2c:cd:22:a7:15:a7:f3:
                    e1:c5:f3:15:ab:45:de:1a:b4:fe:ac:ab:2f:80:8c:
                    8d:35:99:18:8c:56:42:44:c9:75:b4:d2:08:f1:52:
                    55:41:30:c2:16:ab:07:89:18:4e:e3:08:f5:6c:d8:
                    46:16:e9:4a:03:a1:8a:93:fa:cb:8a:14:75:cb:63:
                    39:a1:5e:d8:a0:eb:5e:61:e1:02:f9:16:d5:f7:8f:
                    64:38:c7:32:5a:30:c8:c3:cc:dd:78:a0:ac:ed:70:
                    18:91:ac:60:99:c6:78:6e:13:60:85:7d:ce:a8:da:
                    31:ad
                Exponent: 65537 (0x10001)
        X509v3 extensions:
            X509v3 Subject Key Identifier: 
                49:B0:09:25:F7:08:09:DF:68:44:2D:6C:CC:FC:0F:3E:A6:A6:CF:26
            X509v3 Authority Key Identifier: 
                keyid:D2:DA:E2:85:0E:EF:04:EF:A8:AE:42:6D:EC:D5:D4:2B:05:BC:74:47
                DirName:/C=DE/O=BUW APEL Test/CN=APEL Test RootCA
                serial:01
            X509v3 Basic Constraints: critical
                CA:FALSE
            X509v3 Key Usage: critical
                Digital Signature, Key Encipherment
            X509v3 Extended Key Usage: 
                TLS Web Client Authentication
            X509v3 Subject Alternative Name: 
                DNS:localhost, DNS:localhost.localdomain
            X509v3 CRL Distribution Points: 
                Full Name:
                  URI:http://darkhttpd:8080/myca.crl
    Signature Algorithm: sha256WithRSAEncryption
    Signature Value:
        86:ae:d1:db:d5:22:be:fc:0b:ef:31:5b:e7:7e:c1:92:6a:7e:
        cb:b5:7d:23:f8:f6:56:68:21:d5:61:3c:c2:f6:b2:75:72:e9:
        34:59:95:cf:1b:6b:c6:35:43:1e:32:29:ec:37:4a:cf:c7:a7:
        c9:5e:db:0d:53:a4:d4:1e:d9:3a:66:69:da:28:77:a3:f8:7a:
        61:73:0a:55:aa:d3:7b:05:51:ca:ae:02:74:0c:91:5b:5b:2a:
        46:4b:e4:2b:52:15:ce:d7:aa:f4:41:84:c6:fa:0a:cb:09:f2:
        ac:db:aa:14:87:cb:e2:7a:c6:1c:7b:bd:4d:73:f5:8c:47:63:
        19:2d:6e:a5:19:ab:66:81:b6:60:3d:19:de:1f:f8:87:1f:6a:
        91:02:c1:33:45:33:38:84:af:9c:db:89:af:37:3b:ca:ca:28:
        8f:d2:79:62:b6:3b:52:3d:e0:61:9f:69:ee:2e:12:6a:1c:20:
        f9:cb:e6:dd:6f:cb:d4:a2:09:81:22:03:62:cf:b1:ab:5d:c4:
        2c:be:f0:3e:b2:26:38:e8:98:38:11:d0:1f:0d:dc:d2:ad:f5:
        ee:d7:41:48:61:5c:44:07:c5:4d:4a:28:3c:c7:c0:dd:1c:04:
        8a:0e:92:5f:a7:78:06:39:a0:61:d0:67:9e:8a:8d:ce:36:ee:
        b4:b0:72:b3
-----BEGIN CERTIFICATE-----
MIIEHDCCAwSgAwIBAgIBBjANBgkqhkiG9w0BAQsFADBBMQswCQYDVQQGEwJERTEW
MBQGA1UECgwNQlVXIEFQRUwgVGVzdDEaMBgGA1UEAwwRQVBFTCBUZXN0IEludGVy
Q0EwHhcNMjQwNzE2MTY1NDE0WhcNMjUwNzE2MTY1NDE0WjBAMQswCQYDVQQGEwJE
RTEWMBQGA1UECgwNQlVXIEFQRUwgVGVzdDEZMBcGA1UEAwwQQVBFTCBUZXN0IENs
aWVudDCCASIwDQYJKoZIhvcNAQEBBQADggEPADCCAQoCggEBAMPBTyLu7U2/OF6Y
5T+kRhQd0FpplGHArSWyvF3UwxDPBImLS22BS4hTxGhLWmz6dPnXz0q6yCpgAiHo
PRWIK7bI7YJ+VxZ2h0IJB9si/LtZFOovy1lIACjh636bUp3OsTKhIpIVqNqmLujt
bP/LHF4yFol+Pi3sQPj+oMIhsrvmNmlRPNm1e7A1kbYqMl8szSKnFafz4cXzFatF
3hq0/qyrL4CMjTWZGIxWQkTJdbTSCPFSVUEwwharB4kYTuMI9WzYRhbpSgOhipP6
y4oUdctjOaFe2KDrXmHhAvkW1fePZDjHMlowyMPM3XigrO1wGJGsYJnGeG4TYIV9
zqjaMa0CAwEAAaOCAR4wggEaMB0GA1UdDgQWBBRJsAkl9wgJ32hELWzM/A8+pqbP
JjBoBgNVHSMEYTBfgBTS2uKFDu8E76iuQm3s1dQrBbx0R6FEpEIwQDELMAkGA1UE
BhMCREUxFjAUBgNVBAoMDUJVVyBBUEVMIFRlc3QxGTAXBgNVBAMMEEFQRUwgVGVz
dCBSb290Q0GCAQEwDAYDVR0TAQH/BAIwADAOBgNVHQ8BAf8EBAMCBaAwEwYDVR0l
BAwwCgYIKwYBBQUHAwIwKwYDVR0RBCQwIoIJbG9jYWxob3N0ghVsb2NhbGhvc3Qu
bG9jYWxkb21haW4wLwYDVR0fBCgwJjAkoCKgIIYeaHR0cDovL2RhcmtodHRwZDo4
MDgwL215Y2EuY3JsMA0GCSqGSIb3DQEBCwUAA4IBAQCGrtHb1SK+/AvvMVvnfsGS
an7LtX0j+PZWaCHVYTzC9rJ1cuk0WZXPG2vGNUMeMinsN0rPx6fJXtsNU6TUHtk6
ZmnaKHej+HphcwpVqtN7BVHKrgJ0DJFbWypGS+QrUhXO16r0QYTG+grLCfKs26oU
h8viesYce71Nc/WMR2MZLW6lGatmgbZgPRneH/iHH2qRAsEzRTM4hK+c24mvNzvK
yiiP0nlitjtSPeBhn2nuLhJqHCD5y+bdb8vUogmBIgNiz7GrXcQsvvA+siY46Jg4
EdAfDdzSrfXu10FIYVxEB8VNSig8x8DdHASKDpJfp3gGOaBh0Geeio3ONu60sHKz
-----END CERTIFICATE-----
