Certificate:
    Data:
        Version: 3 (0x2)
        Serial Number: 8 (0x8)
        Signature Algorithm: sha256WithRSAEncryption
        Issuer: C=DE, O=BUW APEL Test, CN=Inter
        Validity
            Not Before: May 26 06:53:38 2026 GMT
            Not After : May 26 06:53:38 2027 GMT
        Subject: C=DE, O=BUW APEL Test, CN=APEL Client
        Subject Public Key Info:
            Public Key Algorithm: rsaEncryption
                Public-Key: (2048 bit)
                Modulus:
                    00:f2:75:28:af:da:7e:41:22:04:ee:94:52:e9:39:
                    2c:b1:a2:05:9b:1d:ef:79:74:c0:ef:51:a4:15:61:
                    67:e6:0b:3e:04:df:d1:56:a0:2e:a5:44:ca:0c:90:
                    26:7d:e0:33:23:5e:9c:c4:3c:0f:95:33:0b:d0:70:
                    c8:c7:87:3c:c8:e9:b8:ac:82:4e:8b:27:55:b1:ef:
                    b0:49:1d:32:04:26:ff:48:2f:4c:b6:b5:09:42:64:
                    ce:32:c0:97:f7:1f:7c:7a:ed:58:86:6d:ed:b4:68:
                    b7:fd:b7:dd:bf:6c:9f:66:f4:b4:ba:48:b2:4d:b7:
                    74:f9:b6:80:63:65:fe:d7:46:63:6e:bf:5b:37:a3:
                    9b:9f:43:5f:b7:b2:e3:2c:c8:bd:ec:9e:d7:e2:3d:
                    fb:05:7d:f6:5f:10:e1:89:5d:80:3e:cb:47:17:85:
                    d9:1b:f6:a8:3d:c8:16:0d:a0:e2:dd:55:b4:84:e4:
                    c6:6b:e8:b3:ff:22:4d:a6:b5:a7:01:58:6a:73:a2:
                    00:52:89:74:84:eb:6b:55:d9:44:03:87:2a:37:c9:
                    0e:cf:61:05:98:39:d1:8a:8e:14:dc:b2:19:65:ea:
                    a2:42:fa:61:ff:f5:a4:a7:5d:19:f6:3a:09:79:73:
                    b5:d8:37:3a:c2:f3:cd:78:0f:2f:89:e3:3d:4b:02:
                    81:05
                Exponent: 65537 (0x10001)
        X509v3 extensions:
            X509v3 Subject Key Identifier: 
                A9:60:B0:58:2F:19:FF:BD:B9:52:48:89:98:1B:92:94:82:36:78:EF
            X509v3 Authority Key Identifier: 
                keyid:B5:5C:53:CB:2A:29:F4:58:E2:B6:7E:DE:E2:8F:21:D4:FA:E7:90:78
                DirName:/C=DE/O=BUW APEL Test/CN=Root
                serial:01
            X509v3 Basic Constraints: critical
                CA:FALSE
            X509v3 Key Usage: critical
                Digital Signature, Key Encipherment
            X509v3 Extended Key Usage: 
                TLS Web Client Authentication
            X509v3 Subject Alternative Name: 
                DNS:localhost, DNS:localhost.localdomain, DNS:132.195.124.216, DNS:up.pleiades.uni-wuppertal.de
            X509v3 CRL Distribution Points: 
                Full Name:
                  URI:http://darkhttpd:8080/myca.crl

    Signature Algorithm: sha256WithRSAEncryption
    Signature Value:
        69:18:77:cb:9f:62:bc:40:af:da:bb:12:b1:33:e1:f9:d8:33:
        1d:cc:e0:16:ca:5c:1a:0a:90:91:9d:6e:46:55:18:b6:ca:9c:
        be:77:e9:90:dc:e5:f8:4f:ca:fd:e8:c4:ae:7b:93:4f:05:bc:
        20:1b:d5:26:01:85:06:9b:a9:87:c8:9a:05:92:5e:3d:54:1b:
        8c:5f:4d:8f:07:c0:60:00:d4:62:db:72:a6:8f:20:01:00:be:
        d8:d0:a6:79:39:9f:4d:53:49:89:73:f2:59:d5:87:03:1c:4e:
        26:24:5a:73:65:60:2f:47:6e:75:85:28:da:6e:5b:ff:33:d2:
        1f:80:e8:7a:96:78:d3:8d:50:e0:78:39:ba:07:7f:bc:6f:19:
        5e:ae:59:f2:d0:a6:08:ed:33:37:1e:d8:fd:89:c9:71:08:3a:
        1f:51:32:00:6b:02:69:85:fd:44:b6:c8:f2:40:04:f8:7f:75:
        f1:0f:a6:72:b5:29:93:91:10:f5:ac:eb:c5:48:82:1f:81:2f:
        de:5f:32:71:c6:45:20:78:65:d2:37:3b:a9:aa:2a:bb:12:00:
        b3:f2:ba:74:ce:38:8f:96:0c:7c:82:0d:2a:a6:1a:66:18:e1:
        ba:c1:11:6d:d0:30:be:2c:9f:b7:6f:e5:d5:29:37:e2:1d:42:
        1a:be:bd:5f
-----BEGIN CERTIFICATE-----
MIIELjCCAxagAwIBAgIBCDANBgkqhkiG9w0BAQsFADA1MQswCQYDVQQGEwJERTEW
MBQGA1UECgwNQlVXIEFQRUwgVGVzdDEOMAwGA1UEAwwFSW50ZXIwHhcNMjYwNTI2
MDY1MzM4WhcNMjcwNTI2MDY1MzM4WjA7MQswCQYDVQQGEwJERTEWMBQGA1UECgwN
QlVXIEFQRUwgVGVzdDEUMBIGA1UEAwwLQVBFTCBDbGllbnQwggEiMA0GCSqGSIb3
DQEBAQUAA4IBDwAwggEKAoIBAQDydSiv2n5BIgTulFLpOSyxogWbHe95dMDvUaQV
YWfmCz4E39FWoC6lRMoMkCZ94DMjXpzEPA+VMwvQcMjHhzzI6bisgk6LJ1Wx77BJ
HTIEJv9IL0y2tQlCZM4ywJf3H3x67ViGbe20aLf9t92/bJ9m9LS6SLJNt3T5toBj
Zf7XRmNuv1s3o5ufQ1+3suMsyL3sntfiPfsFffZfEOGJXYA+y0cXhdkb9qg9yBYN
oOLdVbSE5MZr6LP/Ik2mtacBWGpzogBSiXSE62tV2UQDhyo3yQ7PYQWYOdGKjhTc
shll6qJC+mH/9aSnXRn2Ogl5c7XYNzrC8814Dy+J4z1LAoEFAgMBAAGjggFBMIIB
PTAdBgNVHQ4EFgQUqWCwWC8Z/725UkiJmBuSlII2eO8wXAYDVR0jBFUwU4AUtVxT
yyop9Fjitn7e4o8h1PrnkHihOKQ2MDQxCzAJBgNVBAYTAkRFMRYwFAYDVQQKDA1C
VVcgQVBFTCBUZXN0MQ0wCwYDVQQDDARSb290ggEBMAwGA1UdEwEB/wQCMAAwDgYD
VR0PAQH/BAQDAgWgMBMGA1UdJQQMMAoGCCsGAQUFBwMCMFoGA1UdEQRTMFGCCWxv
Y2FsaG9zdIIVbG9jYWxob3N0LmxvY2FsZG9tYWlugg8xMzIuMTk1LjEyNC4yMTaC
HHVwLnBsZWlhZGVzLnVuaS13dXBwZXJ0YWwuZGUwLwYDVR0fBCgwJjAkoCKgIIYe
aHR0cDovL2RhcmtodHRwZDo4MDgwL215Y2EuY3JsMA0GCSqGSIb3DQEBCwUAA4IB
AQBpGHfLn2K8QK/auxKxM+H52DMdzOAWylwaCpCRnW5GVRi2ypy+d+mQ3OX4T8r9
6MSue5NPBbwgG9UmAYUGm6mHyJoFkl49VBuMX02PB8BgANRi23KmjyABAL7Y0KZ5
OZ9NU0mJc/JZ1YcDHE4mJFpzZWAvR251hSjablv/M9IfgOh6lnjTjVDgeDm6B3+8
bxlerlny0KYI7TM3Htj9iclxCDofUTIAawJphf1EtsjyQAT4f3XxD6ZytSmTkRD1
rOvFSIIfgS/eXzJxxkUgeGXSNzupqiq7EgCz8rp0zjiPlgx8gg0qphpmGOG6wRFt
0DC+LJ+3b+XVKTfiHUIavr1f
-----END CERTIFICATE-----
Certificate:
    Data:
        Version: 3 (0x2)
        Serial Number: 1 (0x1)
        Signature Algorithm: sha256WithRSAEncryption
        Issuer: C=DE, O=BUW APEL Test, CN=Root
        Validity
            Not Before: Jan 23 10:28:11 2025 GMT
            Not After : Jan 21 10:28:11 2035 GMT
        Subject: C=DE, O=BUW APEL Test, CN=Inter
        Subject Public Key Info:
            Public Key Algorithm: rsaEncryption
                Public-Key: (2048 bit)
                Modulus:
                    00:b7:82:31:2d:84:ad:49:56:85:36:57:62:3f:be:
                    d7:6f:1e:94:67:a1:67:9a:c8:5c:5f:fd:86:f3:ee:
                    50:89:a6:c6:20:4b:82:2e:e7:1f:f1:87:8e:82:7e:
                    21:32:c6:59:c7:ec:57:4a:4e:11:0d:64:d6:09:67:
                    31:df:89:89:64:d4:21:08:d5:f1:f8:52:a7:2b:71:
                    4b:13:ce:d2:0d:e9:46:6d:28:65:5b:4f:6d:52:f8:
                    38:8a:1f:17:d9:e8:78:22:88:06:95:99:ef:79:d7:
                    c0:df:5e:ef:2f:60:36:e1:a8:c2:7a:ae:ee:0d:f8:
                    03:5e:d5:23:07:38:9f:2c:06:26:b7:bf:9d:01:aa:
                    4a:d5:f3:80:6b:99:ed:06:d7:11:99:9d:f8:7c:e7:
                    1d:3b:7a:73:c0:34:81:2b:90:8c:46:80:95:21:6e:
                    95:57:db:7b:32:5b:37:4f:6b:d5:c0:70:b8:91:a0:
                    dc:f4:df:7b:ea:48:c1:6f:dc:7a:a2:1c:a2:33:a4:
                    5e:f5:98:50:a3:38:a6:c6:f4:30:dc:44:e3:a6:d9:
                    a5:75:2d:f2:f6:ff:db:1c:01:02:ff:ea:7a:da:e7:
                    25:b4:59:4a:f4:09:9b:4b:8d:22:13:e3:a8:f3:bc:
                    a6:59:18:3b:49:54:39:83:d4:91:35:40:f1:cb:1e:
                    73:db
                Exponent: 65537 (0x10001)
        X509v3 extensions:
            X509v3 Subject Key Identifier: 
                B5:5C:53:CB:2A:29:F4:58:E2:B6:7E:DE:E2:8F:21:D4:FA:E7:90:78
            X509v3 Authority Key Identifier: 
                keyid:00:71:01:0B:A0:A8:D1:F9:B1:BE:D2:D7:10:AB:31:0C:42:65:6F:CB
                DirName:/C=DE/O=BUW APEL Test/CN=Root
                serial:23:06:E1:E5:FA:B5:C0:D5:55:17:AA:53:05:2D:D3:46:3B:80:80:32
            X509v3 Basic Constraints: critical
                CA:TRUE
            X509v3 Key Usage: critical
                Digital Signature, Certificate Sign, CRL Sign
    Signature Algorithm: sha256WithRSAEncryption
    Signature Value:
        17:84:62:a1:97:9f:6f:9e:2e:8f:c8:b5:69:14:2b:8b:a0:cc:
        d8:35:55:2f:de:0c:1c:c1:b5:6a:b3:8e:90:98:a1:5d:96:b0:
        dc:a6:7b:25:6d:69:ec:c5:b7:23:8e:35:c3:75:41:f8:e5:ab:
        a2:91:0a:48:e6:2f:7d:5a:49:b3:8d:54:93:62:e9:6a:1c:d0:
        2a:f0:97:6b:ba:8d:f8:0a:e5:88:84:7c:cc:ca:7c:04:e5:4e:
        7d:50:fd:05:2f:f2:39:63:ff:a9:ca:88:d3:f7:a1:f3:97:1f:
        66:55:13:8b:29:42:7f:68:74:c8:38:cc:70:f1:50:17:02:8c:
        0f:52:bc:2f:2a:cf:c6:84:76:17:79:9b:d2:68:47:8f:e9:d2:
        82:54:8f:d8:7f:18:db:9b:e1:c7:a3:76:a6:c7:4e:d4:e1:4f:
        34:68:98:3a:d1:14:45:ee:fb:52:16:8e:c6:da:71:01:b9:32:
        1d:3c:7f:31:35:6b:a2:69:ba:74:d7:58:1a:cb:13:04:35:f6:
        0d:54:5f:8a:fb:6c:c9:4a:8d:d8:2a:ee:53:49:b4:9d:75:68:
        3a:ee:bd:c5:af:33:45:2f:08:8e:e7:e5:9f:2d:1f:35:04:37:
        b4:b7:25:71:d4:bc:64:0c:00:f2:d4:c3:da:a7:43:c5:06:7f:
        08:15:0a:87:e3:fb:18:0c:0b:55:ac:a6:76:3a:db:d2:88:c0:
        87:0e:ee:c7:d9:34:86:2c:ab:e2:d2:98:67:8e:86:5b:93:7c:
        f1:3c:a3:8f:9f:52:0d:5a:ec:7e:5b:69:ce:cb:fe:f3:d8:13:
        2d:87:c1:a5:a8:a5:70:56:ff:c5:20:78:73:45:15:cd:64:fc:
        bb:94:de:37:84:e0:ec:c7:1e:a7:df:f9:fd:ea:5c:f7:33:98:
        d5:c6:42:81:2e:cb:e8:98:6e:c6:1f:15:cb:60:da:1b:02:24:
        07:c8:33:30:14:5c:5f:ba:1b:78:51:1b:3b:51:aa:c1:b7:38:
        ec:f6:28:f9:94:37:c7:1b:74:dd:47:0f:c4:e9:9d:b8:94:ec:
        ab:91:32:1e:88:84:8a:cb:ac:35:23:7d:7e:9f:93:65:85:9d:
        7c:d1:24:e9:9e:a7:21:9c:43:4f:6a:f3:f4:da:97:36:35:42:
        3d:60:6e:a7:ac:bf:6c:ec:5a:df:6e:07:75:4c:98:f0:db:a2:
        d0:3e:57:d0:26:e3:61:80:54:88:a3:94:75:99:55:f6:85:21:
        33:97:ad:a5:e4:32:41:f0:c3:2d:c2:9f:04:db:3c:d9:db:97:
        22:0c:6e:bb:ae:49:84:47:aa:e6:5d:42:55:2a:d5:c1:cc:d8:
        90:1b:1b:25:59:02:23:44
-----BEGIN CERTIFICATE-----
MIIEmTCCAoGgAwIBAgIBATANBgkqhkiG9w0BAQsFADA0MQswCQYDVQQGEwJERTEW
MBQGA1UECgwNQlVXIEFQRUwgVGVzdDENMAsGA1UEAwwEUm9vdDAeFw0yNTAxMjMx
MDI4MTFaFw0zNTAxMjExMDI4MTFaMDUxCzAJBgNVBAYTAkRFMRYwFAYDVQQKDA1C
VVcgQVBFTCBUZXN0MQ4wDAYDVQQDDAVJbnRlcjCCASIwDQYJKoZIhvcNAQEBBQAD
ggEPADCCAQoCggEBALeCMS2ErUlWhTZXYj++128elGehZ5rIXF/9hvPuUImmxiBL
gi7nH/GHjoJ+ITLGWcfsV0pOEQ1k1glnMd+JiWTUIQjV8fhSpytxSxPO0g3pRm0o
ZVtPbVL4OIofF9noeCKIBpWZ73nXwN9e7y9gNuGownqu7g34A17VIwc4nywGJre/
nQGqStXzgGuZ7QbXEZmd+HznHTt6c8A0gSuQjEaAlSFulVfbezJbN09r1cBwuJGg
3PTfe+pIwW/ceqIcojOkXvWYUKM4psb0MNxE46bZpXUt8vb/2xwBAv/qetrnJbRZ
SvQJm0uNIhPjqPO8plkYO0lUOYPUkTVA8csec9sCAwEAAaOBtDCBsTAdBgNVHQ4E
FgQUtVxTyyop9Fjitn7e4o8h1PrnkHgwbwYDVR0jBGgwZoAUAHEBC6Co0fmxvtLX
EKsxDEJlb8uhOKQ2MDQxCzAJBgNVBAYTAkRFMRYwFAYDVQQKDA1CVVcgQVBFTCBU
ZXN0MQ0wCwYDVQQDDARSb290ghQjBuHl+rXA1VUXqlMFLdNGO4CAMjAPBgNVHRMB
Af8EBTADAQH/MA4GA1UdDwEB/wQEAwIBhjANBgkqhkiG9w0BAQsFAAOCAgEAF4Ri
oZefb54uj8i1aRQri6DM2DVVL94MHMG1arOOkJihXZaw3KZ7JW1p7MW3I441w3VB
+OWropEKSOYvfVpJs41Uk2LpahzQKvCXa7qN+ArliIR8zMp8BOVOfVD9BS/yOWP/
qcqI0/eh85cfZlUTiylCf2h0yDjMcPFQFwKMD1K8LyrPxoR2F3mb0mhHj+nSglSP
2H8Y25vhx6N2psdO1OFPNGiYOtEURe77UhaOxtpxAbkyHTx/MTVromm6dNdYGssT
BDX2DVRfivtsyUqN2CruU0m0nXVoOu69xa8zRS8Ijuflny0fNQQ3tLclcdS8ZAwA
8tTD2qdDxQZ/CBUKh+P7GAwLVaymdjrb0ojAhw7ux9k0hiyr4tKYZ46GW5N88Tyj
j59SDVrsfltpzsv+89gTLYfBpailcFb/xSB4c0UVzWT8u5TeN4Tg7Mcep9/5/epc
9zOY1cZCgS7L6Jhuxh8Vy2DaGwIkB8gzMBRcX7obeFEbO1Gqwbc47PYo+ZQ3xxt0
3UcPxOmduJTsq5EyHoiEisusNSN9fp+TZYWdfNEk6Z6nIZxDT2rz9NqXNjVCPWBu
p6y/bOxa324HdUyY8Nui0D5X0CbjYYBUiKOUdZlV9oUhM5etpeQyQfDDLcKfBNs8
2duXIgxuu65JhEeq5l1CVSrVwczYkBsbJVkCI0Q=
-----END CERTIFICATE-----
