Certificate:
    Data:
        Version: 3 (0x2)
        Serial Number: 2 (0x2)
        Signature Algorithm: sha256WithRSAEncryption
        Issuer: C=DE, O=BUW AUDITOR Test, CN=InterCA
        Validity
            Not Before: Jun  9 08:32:07 2026 GMT
            Not After : Jun  8 08:32:07 2031 GMT
        Subject: C=DE, O=BUW AUDITOR Test, CN=AUDITOR collector
        Subject Public Key Info:
            Public Key Algorithm: rsaEncryption
                Public-Key: (2048 bit)
                Modulus:
                    00:e7:ae:3e:17:0a:4a:97:8c:e1:6c:1a:1c:2d:59:
                    8b:37:5e:29:74:5d:b0:15:56:31:94:28:80:59:a5:
                    03:72:b3:a3:d0:89:f5:fb:aa:5e:39:8e:cb:40:de:
                    3d:70:66:e6:ee:b6:c2:c3:a2:b6:f3:fc:62:f9:8d:
                    66:1f:8b:18:e2:13:03:83:e6:2b:34:0b:b9:a6:c3:
                    fc:cd:ec:2e:5e:a2:fa:9e:45:be:e9:4b:77:83:90:
                    ec:a7:69:a7:1e:f9:10:fa:1d:f5:42:30:7c:9b:9f:
                    b7:de:42:f6:e1:68:68:c9:43:12:c6:6e:9d:5f:9f:
                    fe:88:26:45:75:b8:28:ab:98:f4:e0:46:c2:57:9e:
                    50:1e:fa:d2:cb:56:9f:0c:c5:ce:a6:91:96:cf:ab:
                    ca:12:2c:33:c9:a4:34:4a:d2:7e:6c:96:2c:16:0d:
                    11:6d:c1:a4:18:61:23:d2:79:22:0a:28:d0:07:77:
                    d4:d5:06:21:2b:a1:ee:d3:c1:bf:87:54:fe:ba:04:
                    a5:db:de:43:61:f3:62:b0:bd:66:ee:bc:1a:03:49:
                    68:d3:7a:ab:1d:88:70:39:72:4d:bc:4f:97:3b:d9:
                    45:3e:6f:b3:f3:d0:98:db:c7:e6:f7:54:49:72:24:
                    36:c2:89:b0:13:c1:63:27:89:8d:ce:ed:51:3d:44:
                    f1:b7
                Exponent: 65537 (0x10001)
        X509v3 extensions:
            X509v3 Subject Key Identifier: 
                1E:66:AA:BF:A7:38:7E:78:B6:7F:C4:DD:43:95:37:11:19:44:B6:41
            X509v3 Authority Key Identifier: 
                keyid:B2:92:86:C6:3E:04:83:E5:43:D5:55:56:48:4D:2B:A3:38:21:B1:04
                DirName:/O=BUW AUDITOR Test/C=DE/CN=RootCA
                serial:01
            X509v3 Basic Constraints: critical
                CA:FALSE
            X509v3 Key Usage: critical
                Digital Signature, Key Encipherment
            X509v3 Extended Key Usage: 
                TLS Web Client Authentication
            X509v3 Subject Alternative Name: 
                DNS:collector
    Signature Algorithm: sha256WithRSAEncryption
    Signature Value:
        72:2e:b0:fe:34:86:1e:d0:ab:3b:25:e7:0b:b4:38:8c:67:e3:
        5d:e2:29:82:de:e6:f8:f6:e0:a9:df:ab:ef:7e:4b:c9:01:b3:
        b1:f0:8b:9f:13:c1:a6:93:fd:8e:95:68:b3:4a:50:1b:1b:d8:
        86:c6:9c:90:51:84:8e:71:7c:45:2b:a2:e5:c6:1e:d0:36:1c:
        4a:bc:c6:0f:5b:92:5e:48:18:d8:b7:fd:92:3b:ef:86:b6:b5:
        f8:55:54:30:fa:d3:39:ed:94:30:ec:8d:f9:20:20:95:d1:04:
        c7:5a:2f:4f:ee:08:45:b9:0a:6b:f0:3d:b2:67:88:69:86:ec:
        f6:88:82:f0:b6:9b:2a:af:ef:54:e4:a5:bf:0f:0f:1d:2f:85:
        7e:db:17:16:1a:08:aa:46:b8:f8:37:4e:b1:c8:59:3b:9b:9d:
        1c:bd:33:44:b7:45:9b:14:d2:a5:22:5c:be:cf:32:e7:df:22:
        f9:7d:b1:62:9b:d4:06:f8:41:24:65:77:45:76:66:f5:15:01:
        80:4d:75:bb:a2:62:26:b0:6c:fe:17:2a:a2:89:48:c9:b0:40:
        f7:86:88:d8:e1:8e:c8:cc:ed:03:ff:3b:48:3e:05:1e:52:1b:
        db:4f:84:fa:61:3b:e0:14:59:85:54:73:ec:60:5d:a5:99:b7:
        b9:48:48:bf
-----BEGIN CERTIFICATE-----
MIIDyDCCArCgAwIBAgIBAjANBgkqhkiG9w0BAQsFADA6MQswCQYDVQQGEwJERTEZ
MBcGA1UECgwQQlVXIEFVRElUT1IgVGVzdDEQMA4GA1UEAwwHSW50ZXJDQTAeFw0y
NjA2MDkwODMyMDdaFw0zMTA2MDgwODMyMDdaMEQxCzAJBgNVBAYTAkRFMRkwFwYD
VQQKDBBCVVcgQVVESVRPUiBUZXN0MRowGAYDVQQDDBFBVURJVE9SIGNvbGxlY3Rv
cjCCASIwDQYJKoZIhvcNAQEBBQADggEPADCCAQoCggEBAOeuPhcKSpeM4WwaHC1Z
izdeKXRdsBVWMZQogFmlA3Kzo9CJ9fuqXjmOy0DePXBm5u62wsOitvP8YvmNZh+L
GOITA4PmKzQLuabD/M3sLl6i+p5FvulLd4OQ7Kdppx75EPod9UIwfJuft95C9uFo
aMlDEsZunV+f/ogmRXW4KKuY9OBGwleeUB760stWnwzFzqaRls+ryhIsM8mkNErS
fmyWLBYNEW3BpBhhI9J5Igoo0Ad31NUGISuh7tPBv4dU/roEpdveQ2HzYrC9Zu68
GgNJaNN6qx2IcDlyTbxPlzvZRT5vs/PQmNvH5vdUSXIkNsKJsBPBYyeJjc7tUT1E
8bcCAwEAAaOBzjCByzAdBgNVHQ4EFgQUHmaqv6c4fni2f8TdQ5U3ERlEtkEwYQYD
VR0jBFowWIAUspKGxj4Eg+VD1VVWSE0rozghsQShPaQ7MDkxGTAXBgNVBAoMEEJV
VyBBVURJVE9SIFRlc3QxCzAJBgNVBAYTAkRFMQ8wDQYDVQQDDAZSb290Q0GCAQEw
DAYDVR0TAQH/BAIwADAOBgNVHQ8BAf8EBAMCBaAwEwYDVR0lBAwwCgYIKwYBBQUH
AwIwFAYDVR0RBA0wC4IJY29sbGVjdG9yMA0GCSqGSIb3DQEBCwUAA4IBAQByLrD+
NIYe0Ks7JecLtDiMZ+Nd4imC3ub49uCp36vvfkvJAbOx8IufE8Gmk/2OlWizSlAb
G9iGxpyQUYSOcXxFK6Llxh7QNhxKvMYPW5JeSBjYt/2SO++GtrX4VVQw+tM57ZQw
7I35ICCV0QTHWi9P7ghFuQpr8D2yZ4hphuz2iILwtpsqr+9U5KW/Dw8dL4V+2xcW
GgiqRrj4N06xyFk7m50cvTNEt0WbFNKlIly+zzLn3yL5fbFim9QG+EEkZXdFdmb1
FQGATXW7omImsGz+FyqiiUjJsED3hojY4Y7IzO0D/ztIPgUeUhvbT4T6YTvgFFmF
VHPsYF2lmbe5SEi/
-----END CERTIFICATE-----
Certificate:
    Data:
        Version: 3 (0x2)
        Serial Number: 1 (0x1)
        Signature Algorithm: sha256WithRSAEncryption
        Issuer: O=BUW AUDITOR Test, C=DE, CN=RootCA
        Validity
            Not Before: Jun  9 08:32:07 2026 GMT
            Not After : Jun  6 08:32:07 2036 GMT
        Subject: C=DE, O=BUW AUDITOR Test, CN=InterCA
        Subject Public Key Info:
            Public Key Algorithm: rsaEncryption
                Public-Key: (2048 bit)
                Modulus:
                    00:aa:76:d8:4a:92:2f:e5:54:d5:9e:f3:59:9a:08:
                    5f:da:4c:4a:e9:73:66:ff:be:a6:55:d7:f9:d3:7a:
                    9a:5f:06:48:c6:e0:93:c8:a9:47:55:43:1d:c1:7f:
                    8b:09:90:04:0e:76:11:15:2e:bf:4d:9a:3b:bd:d8:
                    60:8e:3a:c9:53:1b:cd:53:1d:41:f3:db:ce:0a:4f:
                    72:6c:9b:c2:14:0e:85:ca:9d:be:a7:54:73:70:ce:
                    f2:7f:44:11:10:be:2b:a2:be:5c:09:9a:11:32:23:
                    91:42:bc:8b:c1:50:7b:df:3a:64:a0:3e:0f:88:d5:
                    f4:1f:12:c5:9c:5a:b1:ce:fd:34:78:f1:88:72:ca:
                    8d:c0:3d:42:ff:e5:40:8f:6a:71:b2:7e:1f:b0:1d:
                    59:eb:fe:27:2f:16:26:aa:63:1d:5f:b0:5b:2f:ad:
                    36:fb:cb:ae:6e:c7:84:1a:ec:1c:87:cf:93:32:a4:
                    cf:4c:9d:53:87:e2:e2:26:9e:27:f0:7f:e6:a8:86:
                    10:0a:b9:1e:be:71:37:81:93:6d:9e:2e:31:13:1b:
                    60:1c:ec:2a:e5:ad:82:ae:c5:e6:06:e7:81:70:ca:
                    82:90:07:2b:75:c2:fa:a1:b6:cb:42:15:8a:07:83:
                    28:56:37:46:a3:3d:55:ce:33:bb:b8:32:e4:57:63:
                    72:eb
                Exponent: 65537 (0x10001)
        X509v3 extensions:
            X509v3 Subject Key Identifier: 
                B2:92:86:C6:3E:04:83:E5:43:D5:55:56:48:4D:2B:A3:38:21:B1:04
            X509v3 Authority Key Identifier: 
                keyid:1A:96:54:D0:9F:5F:F7:6D:BE:F2:7F:FA:73:30:79:42:0E:AD:7B:3A
                DirName:/O=BUW AUDITOR Test/C=DE/CN=RootCA
                serial:47:B8:88:08:C8:12:E9:59:E2:74:5F:0C:7D:5C:FF:DA:FE:13:77:4D
            X509v3 Basic Constraints: critical
                CA:TRUE
            X509v3 Key Usage: critical
                Digital Signature, Certificate Sign, CRL Sign
    Signature Algorithm: sha256WithRSAEncryption
    Signature Value:
        53:46:38:e1:78:2b:2a:36:8f:78:3a:af:b4:23:20:e5:bd:75:
        00:5f:a4:da:a1:39:cf:cf:1b:85:e5:82:e4:74:7f:c8:b0:4f:
        72:99:84:0a:89:28:1f:af:00:14:8f:47:51:14:12:37:a4:42:
        26:cd:13:14:eb:c8:8a:ce:4b:6f:1c:f2:47:54:00:b2:21:8f:
        d3:f5:12:5f:cf:28:ce:4b:5b:65:d2:96:0f:d6:22:60:ea:b3:
        9e:85:bb:8f:ee:d1:0f:2c:da:08:db:a6:4a:50:55:22:68:9b:
        44:49:9c:57:47:ab:c0:50:0e:f3:52:f8:ca:7c:fa:1f:92:86:
        8a:5f:a9:fe:48:7d:44:31:a4:fd:ca:92:0a:58:bf:e1:93:1f:
        cc:af:d5:49:69:e3:28:bd:cf:da:82:89:72:47:6f:51:2d:60:
        ca:1f:cf:7d:fc:8d:3c:c8:d6:83:d1:67:ef:b7:ea:77:3a:66:
        7d:f6:1e:51:d5:82:b0:11:04:5a:d4:b4:b6:7d:05:4e:7e:ef:
        20:a9:c3:b8:2f:94:33:12:9c:40:53:0c:a4:bc:f5:d7:cf:85:
        d3:96:33:57:47:99:e1:da:03:d8:83:cb:99:60:d3:fd:49:1c:
        99:2e:57:88:91:b2:fc:43:c8:57:c2:a7:2e:87:dc:f8:d0:13:
        e1:cb:ac:87:16:a0:37:44:ef:c7:5f:d2:9b:a4:5e:a7:67:d9:
        9b:cf:bf:73:14:f5:f3:44:7c:d0:94:0b:08:9a:af:11:63:d3:
        c0:37:16:a0:ec:95:96:ac:b9:02:93:88:a1:fb:ac:fe:ee:4a:
        56:8d:58:42:cb:cb:0b:14:21:17:75:29:42:79:cf:63:b4:5c:
        c5:b7:04:d7:63:cf:25:d0:35:3d:77:ec:53:25:4f:cd:be:c5:
        e8:e7:52:a1:95:a7:c2:62:e9:1e:eb:62:04:52:28:58:11:b2:
        07:4d:dc:70:1e:59:fc:01:43:b0:40:a9:21:ef:aa:a8:3a:68:
        30:90:51:2a:17:e4:7d:b2:ae:36:2a:12:84:fa:3f:c9:a0:32:
        cd:d2:26:05:17:c0:67:72:cc:1b:84:f4:15:35:3a:86:ea:08:
        11:3b:c4:c5:1c:dc:30:2f:32:0f:54:fd:08:01:e0:27:7f:26:
        c9:7f:91:5e:df:c8:69:25:64:51:69:34:20:ec:f0:7d:c6:08:
        90:f6:d4:d1:99:99:bb:fc:9b:e4:2a:bc:c5:52:08:4e:65:9a:
        1a:81:a9:cd:f2:18:19:9c:a1:bf:56:28:0d:3d:85:5b:8c:a0:
        dc:c9:a6:da:00:ae:45:2c:d4:1c:d2:b0:4d:e5:a5:f0:f1:32:
        c0:c5:de:94:a7:19:77:44
-----BEGIN CERTIFICATE-----
MIIEqDCCApCgAwIBAgIBATANBgkqhkiG9w0BAQsFADA5MRkwFwYDVQQKDBBCVVcg
QVVESVRPUiBUZXN0MQswCQYDVQQGEwJERTEPMA0GA1UEAwwGUm9vdENBMB4XDTI2
MDYwOTA4MzIwN1oXDTM2MDYwNjA4MzIwN1owOjELMAkGA1UEBhMCREUxGTAXBgNV
BAoMEEJVVyBBVURJVE9SIFRlc3QxEDAOBgNVBAMMB0ludGVyQ0EwggEiMA0GCSqG
SIb3DQEBAQUAA4IBDwAwggEKAoIBAQCqdthKki/lVNWe81maCF/aTErpc2b/vqZV
1/nTeppfBkjG4JPIqUdVQx3Bf4sJkAQOdhEVLr9Nmju92GCOOslTG81THUHz284K
T3Jsm8IUDoXKnb6nVHNwzvJ/RBEQviuivlwJmhEyI5FCvIvBUHvfOmSgPg+I1fQf
EsWcWrHO/TR48Yhyyo3APUL/5UCPanGyfh+wHVnr/icvFiaqYx1fsFsvrTb7y65u
x4Qa7ByHz5MypM9MnVOH4uImnifwf+aohhAKuR6+cTeBk22eLjETG2Ac7CrlrYKu
xeYG54FwyoKQByt1wvqhtstCFYoHgyhWN0ajPVXOM7u4MuRXY3LrAgMBAAGjgbkw
gbYwHQYDVR0OBBYEFLKShsY+BIPlQ9VVVkhNK6M4IbEEMHQGA1UdIwRtMGuAFBqW
VNCfX/dtvvJ/+nMweUIOrXs6oT2kOzA5MRkwFwYDVQQKDBBCVVcgQVVESVRPUiBU
ZXN0MQswCQYDVQQGEwJERTEPMA0GA1UEAwwGUm9vdENBghRHuIgIyBLpWeJ0Xwx9
XP/a/hN3TTAPBgNVHRMBAf8EBTADAQH/MA4GA1UdDwEB/wQEAwIBhjANBgkqhkiG
9w0BAQsFAAOCAgEAU0Y44XgrKjaPeDqvtCMg5b11AF+k2qE5z88bheWC5HR/yLBP
cpmECokoH68AFI9HURQSN6RCJs0TFOvIis5LbxzyR1QAsiGP0/USX88ozktbZdKW
D9YiYOqznoW7j+7RDyzaCNumSlBVImibREmcV0erwFAO81L4ynz6H5KGil+p/kh9
RDGk/cqSCli/4ZMfzK/VSWnjKL3P2oKJckdvUS1gyh/PffyNPMjWg9Fn77fqdzpm
ffYeUdWCsBEEWtS0tn0FTn7vIKnDuC+UMxKcQFMMpLz118+F05YzV0eZ4doD2IPL
mWDT/UkcmS5XiJGy/EPIV8KnLofc+NAT4cushxagN0Tvx1/Sm6Rep2fZm8+/cxT1
80R80JQLCJqvEWPTwDcWoOyVlqy5ApOIofus/u5KVo1YQsvLCxQhF3UpQnnPY7Rc
xbcE12PPJdA1PXfsUyVPzb7F6OdSoZWnwmLpHutiBFIoWBGyB03ccB5Z/AFDsECp
Ie+qqDpoMJBRKhfkfbKuNioShPo/yaAyzdImBRfAZ3LMG4T0FTU6huoIETvExRzc
MC8yD1T9CAHgJ38myX+RXt/IaSVkUWk0IOzwfcYIkPbU0ZmZu/yb5Cq8xVIITmWa
GoGpzfIYGZyhv1YoDT2FW4yg3Mmm2gCuRSzUHNKwTeWl8PEywMXelKcZd0Q=
-----END CERTIFICATE-----
