Certificate:
    Data:
        Version: 3 (0x2)
        Serial Number: 4 (0x4)
        Signature Algorithm: sha256WithRSAEncryption
        Issuer: C=DE, O=BUW AUDITOR Test, CN=InterCA
        Validity
            Not Before: Jun  9 08:32:07 2026 GMT
            Not After : Jun  8 08:32:07 2031 GMT
        Subject: C=DE, O=BUW AUDITOR Test, CN=AUDITOR prometheus
        Subject Public Key Info:
            Public Key Algorithm: rsaEncryption
                Public-Key: (2048 bit)
                Modulus:
                    00:97:1b:c8:29:c7:79:fb:36:4f:b1:ce:65:5a:f6:
                    fe:fc:9c:26:c1:15:c3:72:5c:01:32:95:74:e6:02:
                    0e:11:41:db:cb:46:96:25:62:5a:a1:d4:f0:8f:69:
                    b5:e2:71:24:2d:cd:ae:b9:5b:23:af:41:54:ab:ae:
                    ba:d9:7c:a7:dd:8a:be:11:9f:d7:f0:a2:3b:00:1a:
                    c2:32:a0:51:1e:5a:7c:d8:30:15:7f:72:68:e3:bd:
                    a4:c8:02:f2:35:e5:2c:9f:32:c7:3d:f6:ec:3d:a7:
                    a3:5f:01:5e:39:28:35:6c:d9:99:66:3e:96:2b:9a:
                    ad:b0:ff:90:17:93:9b:6a:f7:c4:74:39:62:4c:f2:
                    70:bd:83:fc:ce:d6:2b:e0:54:6d:5d:2f:df:01:a2:
                    6c:7b:a8:95:f5:64:90:58:89:92:6c:d1:24:0c:cc:
                    c3:48:99:97:d5:4b:ad:7c:49:5f:dd:82:59:65:00:
                    85:8c:6a:4a:79:a8:63:3f:01:30:32:5e:a4:3e:28:
                    49:58:8f:7c:b7:53:4b:38:ca:2f:c2:df:93:41:e5:
                    d6:95:d9:2d:de:61:15:8c:34:c9:6f:92:6e:07:38:
                    11:e3:88:9a:3f:b8:1f:aa:78:3d:18:53:b8:d2:98:
                    9c:e9:37:44:5e:30:4b:6d:58:23:5e:5a:30:bb:40:
                    f1:a9
                Exponent: 65537 (0x10001)
        X509v3 extensions:
            X509v3 Subject Key Identifier: 
                FE:8C:FE:EA:7F:D7:52:6E:D9:5C:3E:F4:AD:6F:19:F2:E1:9C:43:D0
            X509v3 Authority Key Identifier: 
                keyid:B2:92:86:C6:3E:04:83:E5:43:D5:55:56:48:4D:2B:A3:38:21:B1:04
                DirName:/O=BUW AUDITOR Test/C=DE/CN=RootCA
                serial:01
            X509v3 Basic Constraints: critical
                CA:FALSE
            X509v3 Key Usage: critical
                Digital Signature, Key Encipherment, Key Agreement
            X509v3 Extended Key Usage: 
                TLS Web Server Authentication
            X509v3 Subject Alternative Name: 
                DNS:prometheus, DNS:prom-svc
    Signature Algorithm: sha256WithRSAEncryption
    Signature Value:
        10:6b:5b:86:ed:df:c4:0a:32:07:a7:95:71:11:a4:00:49:fc:
        c0:57:74:04:58:eb:4d:f3:96:14:b0:61:62:fb:ae:e3:cf:be:
        83:83:91:1a:da:d6:3c:b6:01:cb:7b:18:12:92:c0:a2:88:83:
        e6:d0:ab:95:fd:03:4d:f4:79:5c:39:28:a0:ad:ea:98:ae:c5:
        de:88:a4:fb:1f:77:18:7c:6c:45:30:46:d0:8f:0e:19:33:dd:
        87:d3:56:84:6f:6d:24:27:08:cb:69:fc:c6:04:8b:83:fa:2b:
        fc:e9:ca:3b:4e:e2:95:85:fc:b4:44:b7:3a:d2:41:86:07:ad:
        74:2b:ed:54:b1:08:46:dc:54:d2:eb:bc:49:9d:6f:eb:1f:5c:
        87:51:3b:e2:7d:25:e0:17:62:0a:7d:86:f0:25:19:bd:09:30:
        8f:00:58:e5:e0:41:33:a2:47:35:ba:f5:f9:ee:98:fd:60:fd:
        47:28:10:3b:f7:5b:1f:88:c0:b3:90:c9:96:ee:77:9d:58:b4:
        5e:74:54:68:78:a2:22:0c:4f:16:14:87:f0:15:45:fd:0a:4b:
        18:0f:9b:b3:1b:4a:b4:0e:7f:97:47:e2:0f:9a:69:45:82:9b:
        ec:69:3c:a0:45:fe:43:a3:e7:39:5e:e3:a3:55:3e:02:50:a8:
        67:fc:28:20
-----BEGIN CERTIFICATE-----
MIID1DCCArygAwIBAgIBBDANBgkqhkiG9w0BAQsFADA6MQswCQYDVQQGEwJERTEZ
MBcGA1UECgwQQlVXIEFVRElUT1IgVGVzdDEQMA4GA1UEAwwHSW50ZXJDQTAeFw0y
NjA2MDkwODMyMDdaFw0zMTA2MDgwODMyMDdaMEUxCzAJBgNVBAYTAkRFMRkwFwYD
VQQKDBBCVVcgQVVESVRPUiBUZXN0MRswGQYDVQQDDBJBVURJVE9SIHByb21ldGhl
dXMwggEiMA0GCSqGSIb3DQEBAQUAA4IBDwAwggEKAoIBAQCXG8gpx3n7Nk+xzmVa
9v78nCbBFcNyXAEylXTmAg4RQdvLRpYlYlqh1PCPabXicSQtza65WyOvQVSrrrrZ
fKfdir4Rn9fwojsAGsIyoFEeWnzYMBV/cmjjvaTIAvI15SyfMsc99uw9p6NfAV45
KDVs2ZlmPpYrmq2w/5AXk5tq98R0OWJM8nC9g/zO1ivgVG1dL98Bomx7qJX1ZJBY
iZJs0SQMzMNImZfVS618SV/dglllAIWMakp5qGM/ATAyXqQ+KElYj3y3U0s4yi/C
35NB5daV2S3eYRWMNMlvkm4HOBHjiJo/uB+qeD0YU7jSmJzpN0ReMEttWCNeWjC7
QPGpAgMBAAGjgdkwgdYwHQYDVR0OBBYEFP6M/up/11Ju2Vw+9K1vGfLhnEPQMGEG
A1UdIwRaMFiAFLKShsY+BIPlQ9VVVkhNK6M4IbEEoT2kOzA5MRkwFwYDVQQKDBBC
VVcgQVVESVRPUiBUZXN0MQswCQYDVQQGEwJERTEPMA0GA1UEAwwGUm9vdENBggEB
MAwGA1UdEwEB/wQCMAAwDgYDVR0PAQH/BAQDAgOoMBMGA1UdJQQMMAoGCCsGAQUF
BwMBMB8GA1UdEQQYMBaCCnByb21ldGhldXOCCHByb20tc3ZjMA0GCSqGSIb3DQEB
CwUAA4IBAQAQa1uG7d/ECjIHp5VxEaQASfzAV3QEWOtN85YUsGFi+67jz76Dg5Ea
2tY8tgHLexgSksCiiIPm0KuV/QNN9HlcOSigreqYrsXeiKT7H3cYfGxFMEbQjw4Z
M92H01aEb20kJwjLafzGBIuD+iv86co7TuKVhfy0RLc60kGGB610K+1UsQhG3FTS
67xJnW/rH1yHUTvifSXgF2IKfYbwJRm9CTCPAFjl4EEzokc1uvX57pj9YP1HKBA7
91sfiMCzkMmW7nedWLRedFRoeKIiDE8WFIfwFUX9CksYD5uzG0q0Dn+XR+IPmmlF
gpvsaTygRf5Do+c5XuOjVT4CUKhn/Cgg
-----END CERTIFICATE-----
Certificate:
    Data:
        Version: 3 (0x2)
        Serial Number: 1 (0x1)
        Signature Algorithm: sha256WithRSAEncryption
        Issuer: O=BUW AUDITOR Test, C=DE, CN=RootCA
        Validity
            Not Before: Jun  9 08:32:07 2026 GMT
            Not After : Jun  6 08:32:07 2036 GMT
        Subject: C=DE, O=BUW AUDITOR Test, CN=InterCA
        Subject Public Key Info:
            Public Key Algorithm: rsaEncryption
                Public-Key: (2048 bit)
                Modulus:
                    00:aa:76:d8:4a:92:2f:e5:54:d5:9e:f3:59:9a:08:
                    5f:da:4c:4a:e9:73:66:ff:be:a6:55:d7:f9:d3:7a:
                    9a:5f:06:48:c6:e0:93:c8:a9:47:55:43:1d:c1:7f:
                    8b:09:90:04:0e:76:11:15:2e:bf:4d:9a:3b:bd:d8:
                    60:8e:3a:c9:53:1b:cd:53:1d:41:f3:db:ce:0a:4f:
                    72:6c:9b:c2:14:0e:85:ca:9d:be:a7:54:73:70:ce:
                    f2:7f:44:11:10:be:2b:a2:be:5c:09:9a:11:32:23:
                    91:42:bc:8b:c1:50:7b:df:3a:64:a0:3e:0f:88:d5:
                    f4:1f:12:c5:9c:5a:b1:ce:fd:34:78:f1:88:72:ca:
                    8d:c0:3d:42:ff:e5:40:8f:6a:71:b2:7e:1f:b0:1d:
                    59:eb:fe:27:2f:16:26:aa:63:1d:5f:b0:5b:2f:ad:
                    36:fb:cb:ae:6e:c7:84:1a:ec:1c:87:cf:93:32:a4:
                    cf:4c:9d:53:87:e2:e2:26:9e:27:f0:7f:e6:a8:86:
                    10:0a:b9:1e:be:71:37:81:93:6d:9e:2e:31:13:1b:
                    60:1c:ec:2a:e5:ad:82:ae:c5:e6:06:e7:81:70:ca:
                    82:90:07:2b:75:c2:fa:a1:b6:cb:42:15:8a:07:83:
                    28:56:37:46:a3:3d:55:ce:33:bb:b8:32:e4:57:63:
                    72:eb
                Exponent: 65537 (0x10001)
        X509v3 extensions:
            X509v3 Subject Key Identifier: 
                B2:92:86:C6:3E:04:83:E5:43:D5:55:56:48:4D:2B:A3:38:21:B1:04
            X509v3 Authority Key Identifier: 
                keyid:1A:96:54:D0:9F:5F:F7:6D:BE:F2:7F:FA:73:30:79:42:0E:AD:7B:3A
                DirName:/O=BUW AUDITOR Test/C=DE/CN=RootCA
                serial:47:B8:88:08:C8:12:E9:59:E2:74:5F:0C:7D:5C:FF:DA:FE:13:77:4D
            X509v3 Basic Constraints: critical
                CA:TRUE
            X509v3 Key Usage: critical
                Digital Signature, Certificate Sign, CRL Sign
    Signature Algorithm: sha256WithRSAEncryption
    Signature Value:
        53:46:38:e1:78:2b:2a:36:8f:78:3a:af:b4:23:20:e5:bd:75:
        00:5f:a4:da:a1:39:cf:cf:1b:85:e5:82:e4:74:7f:c8:b0:4f:
        72:99:84:0a:89:28:1f:af:00:14:8f:47:51:14:12:37:a4:42:
        26:cd:13:14:eb:c8:8a:ce:4b:6f:1c:f2:47:54:00:b2:21:8f:
        d3:f5:12:5f:cf:28:ce:4b:5b:65:d2:96:0f:d6:22:60:ea:b3:
        9e:85:bb:8f:ee:d1:0f:2c:da:08:db:a6:4a:50:55:22:68:9b:
        44:49:9c:57:47:ab:c0:50:0e:f3:52:f8:ca:7c:fa:1f:92:86:
        8a:5f:a9:fe:48:7d:44:31:a4:fd:ca:92:0a:58:bf:e1:93:1f:
        cc:af:d5:49:69:e3:28:bd:cf:da:82:89:72:47:6f:51:2d:60:
        ca:1f:cf:7d:fc:8d:3c:c8:d6:83:d1:67:ef:b7:ea:77:3a:66:
        7d:f6:1e:51:d5:82:b0:11:04:5a:d4:b4:b6:7d:05:4e:7e:ef:
        20:a9:c3:b8:2f:94:33:12:9c:40:53:0c:a4:bc:f5:d7:cf:85:
        d3:96:33:57:47:99:e1:da:03:d8:83:cb:99:60:d3:fd:49:1c:
        99:2e:57:88:91:b2:fc:43:c8:57:c2:a7:2e:87:dc:f8:d0:13:
        e1:cb:ac:87:16:a0:37:44:ef:c7:5f:d2:9b:a4:5e:a7:67:d9:
        9b:cf:bf:73:14:f5:f3:44:7c:d0:94:0b:08:9a:af:11:63:d3:
        c0:37:16:a0:ec:95:96:ac:b9:02:93:88:a1:fb:ac:fe:ee:4a:
        56:8d:58:42:cb:cb:0b:14:21:17:75:29:42:79:cf:63:b4:5c:
        c5:b7:04:d7:63:cf:25:d0:35:3d:77:ec:53:25:4f:cd:be:c5:
        e8:e7:52:a1:95:a7:c2:62:e9:1e:eb:62:04:52:28:58:11:b2:
        07:4d:dc:70:1e:59:fc:01:43:b0:40:a9:21:ef:aa:a8:3a:68:
        30:90:51:2a:17:e4:7d:b2:ae:36:2a:12:84:fa:3f:c9:a0:32:
        cd:d2:26:05:17:c0:67:72:cc:1b:84:f4:15:35:3a:86:ea:08:
        11:3b:c4:c5:1c:dc:30:2f:32:0f:54:fd:08:01:e0:27:7f:26:
        c9:7f:91:5e:df:c8:69:25:64:51:69:34:20:ec:f0:7d:c6:08:
        90:f6:d4:d1:99:99:bb:fc:9b:e4:2a:bc:c5:52:08:4e:65:9a:
        1a:81:a9:cd:f2:18:19:9c:a1:bf:56:28:0d:3d:85:5b:8c:a0:
        dc:c9:a6:da:00:ae:45:2c:d4:1c:d2:b0:4d:e5:a5:f0:f1:32:
        c0:c5:de:94:a7:19:77:44
-----BEGIN CERTIFICATE-----
MIIEqDCCApCgAwIBAgIBATANBgkqhkiG9w0BAQsFADA5MRkwFwYDVQQKDBBCVVcg
QVVESVRPUiBUZXN0MQswCQYDVQQGEwJERTEPMA0GA1UEAwwGUm9vdENBMB4XDTI2
MDYwOTA4MzIwN1oXDTM2MDYwNjA4MzIwN1owOjELMAkGA1UEBhMCREUxGTAXBgNV
BAoMEEJVVyBBVURJVE9SIFRlc3QxEDAOBgNVBAMMB0ludGVyQ0EwggEiMA0GCSqG
SIb3DQEBAQUAA4IBDwAwggEKAoIBAQCqdthKki/lVNWe81maCF/aTErpc2b/vqZV
1/nTeppfBkjG4JPIqUdVQx3Bf4sJkAQOdhEVLr9Nmju92GCOOslTG81THUHz284K
T3Jsm8IUDoXKnb6nVHNwzvJ/RBEQviuivlwJmhEyI5FCvIvBUHvfOmSgPg+I1fQf
EsWcWrHO/TR48Yhyyo3APUL/5UCPanGyfh+wHVnr/icvFiaqYx1fsFsvrTb7y65u
x4Qa7ByHz5MypM9MnVOH4uImnifwf+aohhAKuR6+cTeBk22eLjETG2Ac7CrlrYKu
xeYG54FwyoKQByt1wvqhtstCFYoHgyhWN0ajPVXOM7u4MuRXY3LrAgMBAAGjgbkw
gbYwHQYDVR0OBBYEFLKShsY+BIPlQ9VVVkhNK6M4IbEEMHQGA1UdIwRtMGuAFBqW
VNCfX/dtvvJ/+nMweUIOrXs6oT2kOzA5MRkwFwYDVQQKDBBCVVcgQVVESVRPUiBU
ZXN0MQswCQYDVQQGEwJERTEPMA0GA1UEAwwGUm9vdENBghRHuIgIyBLpWeJ0Xwx9
XP/a/hN3TTAPBgNVHRMBAf8EBTADAQH/MA4GA1UdDwEB/wQEAwIBhjANBgkqhkiG
9w0BAQsFAAOCAgEAU0Y44XgrKjaPeDqvtCMg5b11AF+k2qE5z88bheWC5HR/yLBP
cpmECokoH68AFI9HURQSN6RCJs0TFOvIis5LbxzyR1QAsiGP0/USX88ozktbZdKW
D9YiYOqznoW7j+7RDyzaCNumSlBVImibREmcV0erwFAO81L4ynz6H5KGil+p/kh9
RDGk/cqSCli/4ZMfzK/VSWnjKL3P2oKJckdvUS1gyh/PffyNPMjWg9Fn77fqdzpm
ffYeUdWCsBEEWtS0tn0FTn7vIKnDuC+UMxKcQFMMpLz118+F05YzV0eZ4doD2IPL
mWDT/UkcmS5XiJGy/EPIV8KnLofc+NAT4cushxagN0Tvx1/Sm6Rep2fZm8+/cxT1
80R80JQLCJqvEWPTwDcWoOyVlqy5ApOIofus/u5KVo1YQsvLCxQhF3UpQnnPY7Rc
xbcE12PPJdA1PXfsUyVPzb7F6OdSoZWnwmLpHutiBFIoWBGyB03ccB5Z/AFDsECp
Ie+qqDpoMJBRKhfkfbKuNioShPo/yaAyzdImBRfAZ3LMG4T0FTU6huoIETvExRzc
MC8yD1T9CAHgJ38myX+RXt/IaSVkUWk0IOzwfcYIkPbU0ZmZu/yb5Cq8xVIITmWa
GoGpzfIYGZyhv1YoDT2FW4yg3Mmm2gCuRSzUHNKwTeWl8PEywMXelKcZd0Q=
-----END CERTIFICATE-----
