Certificate:
    Data:
        Version: 3 (0x2)
        Serial Number: 3 (0x3)
        Signature Algorithm: sha256WithRSAEncryption
        Issuer: C=DE, O=BUW AUDITOR Test, CN=InterCA
        Validity
            Not Before: Jun  9 08:32:07 2026 GMT
            Not After : Jun  8 08:32:07 2031 GMT
        Subject: C=DE, O=BUW AUDITOR Test, CN=AUDITOR reporter
        Subject Public Key Info:
            Public Key Algorithm: rsaEncryption
                Public-Key: (2048 bit)
                Modulus:
                    00:b5:a8:9f:cd:e6:9f:d6:8e:2c:57:26:bf:0b:f7:
                    6a:f7:94:4b:63:ab:7e:49:3a:ea:7a:ce:45:a2:42:
                    76:a7:1d:cc:79:f1:11:7f:d1:97:7b:ed:45:b1:52:
                    63:31:40:0a:f3:35:4e:ee:f4:df:bb:d4:a8:5e:18:
                    0e:fc:ea:2e:b4:c4:20:92:2e:af:ee:80:b7:78:18:
                    4c:bf:d2:4e:44:16:d7:16:eb:63:02:95:fa:93:ad:
                    63:aa:af:59:9a:62:07:c8:40:e8:e5:d0:b8:23:5d:
                    55:c1:66:82:91:2e:3b:1e:7f:d5:47:85:3d:8b:ea:
                    27:ca:8f:b1:61:d7:2c:f6:ca:f3:3e:ae:34:8f:a2:
                    2d:2c:d2:e2:aa:8e:5c:35:f3:ef:2b:4c:b5:da:42:
                    a3:8c:f3:14:0c:df:72:ab:9a:c2:e7:a4:d0:2a:99:
                    a5:17:55:90:a0:fe:c7:62:91:5c:c0:20:16:e5:f3:
                    43:07:80:e4:86:ef:e3:cd:20:5c:1b:04:9a:31:09:
                    ce:f7:0b:c3:9d:58:08:f0:f4:1f:1d:7b:0d:8a:8e:
                    33:23:41:16:e7:4a:8a:36:08:f5:af:b8:e9:44:8e:
                    80:ba:e3:c2:ba:73:70:c8:a8:59:a3:ca:23:ac:ba:
                    d7:14:98:fc:03:1c:a4:17:30:76:73:36:e6:fe:94:
                    75:a5
                Exponent: 65537 (0x10001)
        X509v3 extensions:
            X509v3 Subject Key Identifier: 
                9D:43:46:7A:F2:6D:EA:54:3A:2E:19:DA:4D:9D:51:92:CA:EB:A7:09
            X509v3 Authority Key Identifier: 
                keyid:B2:92:86:C6:3E:04:83:E5:43:D5:55:56:48:4D:2B:A3:38:21:B1:04
                DirName:/O=BUW AUDITOR Test/C=DE/CN=RootCA
                serial:01
            X509v3 Basic Constraints: critical
                CA:FALSE
            X509v3 Key Usage: critical
                Digital Signature, Key Encipherment
            X509v3 Extended Key Usage: 
                TLS Web Client Authentication
            X509v3 Subject Alternative Name: 
                DNS:reporter
    Signature Algorithm: sha256WithRSAEncryption
    Signature Value:
        30:cc:e5:21:b9:93:87:51:73:2f:2c:0c:aa:24:2f:d5:a4:5c:
        48:75:3c:ec:2c:31:15:3f:c3:e4:9f:7e:4e:5c:dc:98:bd:87:
        cf:23:70:d9:bb:02:b7:39:e6:d1:76:4e:a3:56:7c:23:fa:e0:
        3f:c9:7d:4a:76:71:c8:c3:84:eb:0a:c2:6d:a8:5e:80:dc:52:
        ed:d2:80:6e:6f:3b:89:e1:69:06:96:9d:92:ba:6b:dd:3e:d3:
        36:20:af:9d:28:af:17:f9:45:18:d1:44:e4:5d:62:5c:b5:46:
        44:76:be:8a:87:08:f8:c9:fe:94:b6:b5:05:55:1e:d4:31:ac:
        6e:e9:05:d1:08:3a:56:6f:64:4d:4b:90:e0:ee:82:22:5f:c7:
        c1:35:31:ab:8a:26:03:f7:82:32:ba:0c:04:9f:64:2d:09:9e:
        f8:ef:41:11:59:9a:b0:63:10:f5:05:87:3c:93:70:43:1d:49:
        33:6f:f0:b3:e5:ae:e7:18:c0:04:0f:34:94:44:27:09:85:dc:
        01:c6:a0:a5:a9:2c:88:57:e5:0d:c3:6c:21:cb:52:f4:b7:10:
        f7:8c:e0:9b:d6:c9:e9:53:85:45:96:9a:cc:35:86:ed:be:ef:
        a9:7b:9e:54:e2:a2:a8:05:da:40:48:ad:ef:c9:c4:4a:37:cb:
        ae:06:76:d0
-----BEGIN CERTIFICATE-----
MIIDxjCCAq6gAwIBAgIBAzANBgkqhkiG9w0BAQsFADA6MQswCQYDVQQGEwJERTEZ
MBcGA1UECgwQQlVXIEFVRElUT1IgVGVzdDEQMA4GA1UEAwwHSW50ZXJDQTAeFw0y
NjA2MDkwODMyMDdaFw0zMTA2MDgwODMyMDdaMEMxCzAJBgNVBAYTAkRFMRkwFwYD
VQQKDBBCVVcgQVVESVRPUiBUZXN0MRkwFwYDVQQDDBBBVURJVE9SIHJlcG9ydGVy
MIIBIjANBgkqhkiG9w0BAQEFAAOCAQ8AMIIBCgKCAQEAtaifzeaf1o4sVya/C/dq
95RLY6t+STrqes5FokJ2px3MefERf9GXe+1FsVJjMUAK8zVO7vTfu9SoXhgO/Oou
tMQgki6v7oC3eBhMv9JORBbXFutjApX6k61jqq9ZmmIHyEDo5dC4I11VwWaCkS47
Hn/VR4U9i+onyo+xYdcs9srzPq40j6ItLNLiqo5cNfPvK0y12kKjjPMUDN9yq5rC
56TQKpmlF1WQoP7HYpFcwCAW5fNDB4Dkhu/jzSBcGwSaMQnO9wvDnVgI8PQfHXsN
io4zI0EW50qKNgj1r7jpRI6AuuPCunNwyKhZo8ojrLrXFJj8AxykFzB2czbm/pR1
pQIDAQABo4HNMIHKMB0GA1UdDgQWBBSdQ0Z68m3qVDouGdpNnVGSyuunCTBhBgNV
HSMEWjBYgBSykobGPgSD5UPVVVZITSujOCGxBKE9pDswOTEZMBcGA1UECgwQQlVX
IEFVRElUT1IgVGVzdDELMAkGA1UEBhMCREUxDzANBgNVBAMMBlJvb3RDQYIBATAM
BgNVHRMBAf8EAjAAMA4GA1UdDwEB/wQEAwIFoDATBgNVHSUEDDAKBggrBgEFBQcD
AjATBgNVHREEDDAKgghyZXBvcnRlcjANBgkqhkiG9w0BAQsFAAOCAQEAMMzlIbmT
h1FzLywMqiQv1aRcSHU87CwxFT/D5J9+TlzcmL2HzyNw2bsCtznm0XZOo1Z8I/rg
P8l9SnZxyMOE6wrCbahegNxS7dKAbm87ieFpBpadkrpr3T7TNiCvnSivF/lFGNFE
5F1iXLVGRHa+iocI+Mn+lLa1BVUe1DGsbukF0Qg6Vm9kTUuQ4O6CIl/HwTUxq4om
A/eCMroMBJ9kLQme+O9BEVmasGMQ9QWHPJNwQx1JM2/ws+Wu5xjABA80lEQnCYXc
AcagpaksiFflDcNsIctS9LcQ94zgm9bJ6VOFRZaazDWG7b7vqXueVOKiqAXaQEit
78nESjfLrgZ20A==
-----END CERTIFICATE-----
Certificate:
    Data:
        Version: 3 (0x2)
        Serial Number: 1 (0x1)
        Signature Algorithm: sha256WithRSAEncryption
        Issuer: O=BUW AUDITOR Test, C=DE, CN=RootCA
        Validity
            Not Before: Jun  9 08:32:07 2026 GMT
            Not After : Jun  6 08:32:07 2036 GMT
        Subject: C=DE, O=BUW AUDITOR Test, CN=InterCA
        Subject Public Key Info:
            Public Key Algorithm: rsaEncryption
                Public-Key: (2048 bit)
                Modulus:
                    00:aa:76:d8:4a:92:2f:e5:54:d5:9e:f3:59:9a:08:
                    5f:da:4c:4a:e9:73:66:ff:be:a6:55:d7:f9:d3:7a:
                    9a:5f:06:48:c6:e0:93:c8:a9:47:55:43:1d:c1:7f:
                    8b:09:90:04:0e:76:11:15:2e:bf:4d:9a:3b:bd:d8:
                    60:8e:3a:c9:53:1b:cd:53:1d:41:f3:db:ce:0a:4f:
                    72:6c:9b:c2:14:0e:85:ca:9d:be:a7:54:73:70:ce:
                    f2:7f:44:11:10:be:2b:a2:be:5c:09:9a:11:32:23:
                    91:42:bc:8b:c1:50:7b:df:3a:64:a0:3e:0f:88:d5:
                    f4:1f:12:c5:9c:5a:b1:ce:fd:34:78:f1:88:72:ca:
                    8d:c0:3d:42:ff:e5:40:8f:6a:71:b2:7e:1f:b0:1d:
                    59:eb:fe:27:2f:16:26:aa:63:1d:5f:b0:5b:2f:ad:
                    36:fb:cb:ae:6e:c7:84:1a:ec:1c:87:cf:93:32:a4:
                    cf:4c:9d:53:87:e2:e2:26:9e:27:f0:7f:e6:a8:86:
                    10:0a:b9:1e:be:71:37:81:93:6d:9e:2e:31:13:1b:
                    60:1c:ec:2a:e5:ad:82:ae:c5:e6:06:e7:81:70:ca:
                    82:90:07:2b:75:c2:fa:a1:b6:cb:42:15:8a:07:83:
                    28:56:37:46:a3:3d:55:ce:33:bb:b8:32:e4:57:63:
                    72:eb
                Exponent: 65537 (0x10001)
        X509v3 extensions:
            X509v3 Subject Key Identifier: 
                B2:92:86:C6:3E:04:83:E5:43:D5:55:56:48:4D:2B:A3:38:21:B1:04
            X509v3 Authority Key Identifier: 
                keyid:1A:96:54:D0:9F:5F:F7:6D:BE:F2:7F:FA:73:30:79:42:0E:AD:7B:3A
                DirName:/O=BUW AUDITOR Test/C=DE/CN=RootCA
                serial:47:B8:88:08:C8:12:E9:59:E2:74:5F:0C:7D:5C:FF:DA:FE:13:77:4D
            X509v3 Basic Constraints: critical
                CA:TRUE
            X509v3 Key Usage: critical
                Digital Signature, Certificate Sign, CRL Sign
    Signature Algorithm: sha256WithRSAEncryption
    Signature Value:
        53:46:38:e1:78:2b:2a:36:8f:78:3a:af:b4:23:20:e5:bd:75:
        00:5f:a4:da:a1:39:cf:cf:1b:85:e5:82:e4:74:7f:c8:b0:4f:
        72:99:84:0a:89:28:1f:af:00:14:8f:47:51:14:12:37:a4:42:
        26:cd:13:14:eb:c8:8a:ce:4b:6f:1c:f2:47:54:00:b2:21:8f:
        d3:f5:12:5f:cf:28:ce:4b:5b:65:d2:96:0f:d6:22:60:ea:b3:
        9e:85:bb:8f:ee:d1:0f:2c:da:08:db:a6:4a:50:55:22:68:9b:
        44:49:9c:57:47:ab:c0:50:0e:f3:52:f8:ca:7c:fa:1f:92:86:
        8a:5f:a9:fe:48:7d:44:31:a4:fd:ca:92:0a:58:bf:e1:93:1f:
        cc:af:d5:49:69:e3:28:bd:cf:da:82:89:72:47:6f:51:2d:60:
        ca:1f:cf:7d:fc:8d:3c:c8:d6:83:d1:67:ef:b7:ea:77:3a:66:
        7d:f6:1e:51:d5:82:b0:11:04:5a:d4:b4:b6:7d:05:4e:7e:ef:
        20:a9:c3:b8:2f:94:33:12:9c:40:53:0c:a4:bc:f5:d7:cf:85:
        d3:96:33:57:47:99:e1:da:03:d8:83:cb:99:60:d3:fd:49:1c:
        99:2e:57:88:91:b2:fc:43:c8:57:c2:a7:2e:87:dc:f8:d0:13:
        e1:cb:ac:87:16:a0:37:44:ef:c7:5f:d2:9b:a4:5e:a7:67:d9:
        9b:cf:bf:73:14:f5:f3:44:7c:d0:94:0b:08:9a:af:11:63:d3:
        c0:37:16:a0:ec:95:96:ac:b9:02:93:88:a1:fb:ac:fe:ee:4a:
        56:8d:58:42:cb:cb:0b:14:21:17:75:29:42:79:cf:63:b4:5c:
        c5:b7:04:d7:63:cf:25:d0:35:3d:77:ec:53:25:4f:cd:be:c5:
        e8:e7:52:a1:95:a7:c2:62:e9:1e:eb:62:04:52:28:58:11:b2:
        07:4d:dc:70:1e:59:fc:01:43:b0:40:a9:21:ef:aa:a8:3a:68:
        30:90:51:2a:17:e4:7d:b2:ae:36:2a:12:84:fa:3f:c9:a0:32:
        cd:d2:26:05:17:c0:67:72:cc:1b:84:f4:15:35:3a:86:ea:08:
        11:3b:c4:c5:1c:dc:30:2f:32:0f:54:fd:08:01:e0:27:7f:26:
        c9:7f:91:5e:df:c8:69:25:64:51:69:34:20:ec:f0:7d:c6:08:
        90:f6:d4:d1:99:99:bb:fc:9b:e4:2a:bc:c5:52:08:4e:65:9a:
        1a:81:a9:cd:f2:18:19:9c:a1:bf:56:28:0d:3d:85:5b:8c:a0:
        dc:c9:a6:da:00:ae:45:2c:d4:1c:d2:b0:4d:e5:a5:f0:f1:32:
        c0:c5:de:94:a7:19:77:44
-----BEGIN CERTIFICATE-----
MIIEqDCCApCgAwIBAgIBATANBgkqhkiG9w0BAQsFADA5MRkwFwYDVQQKDBBCVVcg
QVVESVRPUiBUZXN0MQswCQYDVQQGEwJERTEPMA0GA1UEAwwGUm9vdENBMB4XDTI2
MDYwOTA4MzIwN1oXDTM2MDYwNjA4MzIwN1owOjELMAkGA1UEBhMCREUxGTAXBgNV
BAoMEEJVVyBBVURJVE9SIFRlc3QxEDAOBgNVBAMMB0ludGVyQ0EwggEiMA0GCSqG
SIb3DQEBAQUAA4IBDwAwggEKAoIBAQCqdthKki/lVNWe81maCF/aTErpc2b/vqZV
1/nTeppfBkjG4JPIqUdVQx3Bf4sJkAQOdhEVLr9Nmju92GCOOslTG81THUHz284K
T3Jsm8IUDoXKnb6nVHNwzvJ/RBEQviuivlwJmhEyI5FCvIvBUHvfOmSgPg+I1fQf
EsWcWrHO/TR48Yhyyo3APUL/5UCPanGyfh+wHVnr/icvFiaqYx1fsFsvrTb7y65u
x4Qa7ByHz5MypM9MnVOH4uImnifwf+aohhAKuR6+cTeBk22eLjETG2Ac7CrlrYKu
xeYG54FwyoKQByt1wvqhtstCFYoHgyhWN0ajPVXOM7u4MuRXY3LrAgMBAAGjgbkw
gbYwHQYDVR0OBBYEFLKShsY+BIPlQ9VVVkhNK6M4IbEEMHQGA1UdIwRtMGuAFBqW
VNCfX/dtvvJ/+nMweUIOrXs6oT2kOzA5MRkwFwYDVQQKDBBCVVcgQVVESVRPUiBU
ZXN0MQswCQYDVQQGEwJERTEPMA0GA1UEAwwGUm9vdENBghRHuIgIyBLpWeJ0Xwx9
XP/a/hN3TTAPBgNVHRMBAf8EBTADAQH/MA4GA1UdDwEB/wQEAwIBhjANBgkqhkiG
9w0BAQsFAAOCAgEAU0Y44XgrKjaPeDqvtCMg5b11AF+k2qE5z88bheWC5HR/yLBP
cpmECokoH68AFI9HURQSN6RCJs0TFOvIis5LbxzyR1QAsiGP0/USX88ozktbZdKW
D9YiYOqznoW7j+7RDyzaCNumSlBVImibREmcV0erwFAO81L4ynz6H5KGil+p/kh9
RDGk/cqSCli/4ZMfzK/VSWnjKL3P2oKJckdvUS1gyh/PffyNPMjWg9Fn77fqdzpm
ffYeUdWCsBEEWtS0tn0FTn7vIKnDuC+UMxKcQFMMpLz118+F05YzV0eZ4doD2IPL
mWDT/UkcmS5XiJGy/EPIV8KnLofc+NAT4cushxagN0Tvx1/Sm6Rep2fZm8+/cxT1
80R80JQLCJqvEWPTwDcWoOyVlqy5ApOIofus/u5KVo1YQsvLCxQhF3UpQnnPY7Rc
xbcE12PPJdA1PXfsUyVPzb7F6OdSoZWnwmLpHutiBFIoWBGyB03ccB5Z/AFDsECp
Ie+qqDpoMJBRKhfkfbKuNioShPo/yaAyzdImBRfAZ3LMG4T0FTU6huoIETvExRzc
MC8yD1T9CAHgJ38myX+RXt/IaSVkUWk0IOzwfcYIkPbU0ZmZu/yb5Cq8xVIITmWa
GoGpzfIYGZyhv1YoDT2FW4yg3Mmm2gCuRSzUHNKwTeWl8PEywMXelKcZd0Q=
-----END CERTIFICATE-----
